; Function Attrs: mustprogress nofree nosync nounwind willreturn memory(write, argmem: readwrite, inaccessiblemem: none) uwtable
define noundef range(i32 -1, 1) i32 @_ZN3zmq13do_getsockoptEPvPmPKvm(ptr noundef writeonly captures(none) %0, ptr noundef captures(none) %1, ptr noundef readonly captures(none) %2, i64 noundef %3) local_unnamed_addr #1 {
  %5 = load i64, ptr %1, align 8, !tbaa !11
  %6 = icmp ult i64 %5, %3
  br i1 %6, label %7, label %9

7:                                                ; preds = %4
  %8 = tail call ptr @__errno_location() #22
  store i32 22, ptr %8, align 4, !tbaa !12
  br label %13

9:                                                ; preds = %4
  tail call void @llvm.memcpy.p0.p0.i64(ptr align 1 %0, ptr align 1 %2, i64 %3, i1 false)
  %10 = getelementptr inbounds nuw i8, ptr %0, i64 %3
  %11 = load i64, ptr %1, align 8, !tbaa !11
  %12 = sub i64 %11, %3
  tail call void @llvm.memset.p0.i64(ptr align 1 %10, i8 0, i64 %12, i1 false)
  store i64 %3, ptr %1, align 8, !tbaa !11
  br label %13

13:                                               ; preds = %9, %7
  %.0 = phi i32 [ -1, %7 ], [ 0, %9 ]
  ret i32 %.0
}